(dp1
(S'subj-det'
p2
S'given'
p3
S'new'
p4
tp5
(dp6
S'demonstrative'
p7
F0.011679552942158541
sS'name'
p8
F0.27919534689084563
sS'pronoun'
p9
F0.68569748707526479
sS'description'
p10
F0.023427613091730977
ss(S'np-subj'
p11
g4
g4
tp12
(dp13
g7
F0.013900584461767883
sg8
F0.9500167511503832
sg9
F0.018374175734455774
sg10
F0.017708488653393306
ss(g11
g3
g4
tp14
(dp15
g7
F0.035965255877034627
sg8
F0.52969412179786834
sg9
F0.36130298662189897
sg10
F0.073037635703198087
ss(S'np-obj'
p16
g3
g3
tp17
(dp18
g7
F0.018727364820963838
sg8
F0.12179274073197643
sg9
F0.73185833381101373
sg10
F0.12762156063604602
ss(g16
g3
g4
tp19
(dp20
g7
F0.086939321744009132
sg8
F0.40735485347684747
sg9
F0.3215301179668808
sg10
F0.18417570681226264
ss(g2
g4
g3
tp21
(dp22
g7
F0.0041555502847514646
sg8
F0.63981554386041473
sg9
F0.33920811027711312
sg10
F0.016820795577720798
ss(g2
g4
g4
tp23
(dp24
g7
F0.0082705848936473168
sg8
F0.91743305437900935
sg9
F0.063889423569888262
sg10
F0.01040693715745503
ss(g11
g3
g3
tp25
(dp26
g7
F0.0074555477451280642
sg8
F0.15240865836398595
sg9
F0.79143069939615951
sg10
F0.04870509449472641
ss(g11
g4
g3
tp27
(dp28
g7
F0.0087776045242613267
sg8
F0.83264963730690755
sg9
F0.12260149165958802
sg10
F0.035971266509243142
ss(g16
g4
g3
tp29
(dp30
g7
F0.024633122943505524
sg8
F0.74339632578093784
sg9
F0.12666488519217967
sg10
F0.10530566608337694
ss(g16
g4
g4
tp31
(dp32
g7
F0.0407195677631196
sg8
F0.8853520758229344
sg9
F0.019815041177719653
sg10
F0.054113315236226318
ss(g2
g3
g3
tp33
(dp34
g7
F0.0015128529160615099
sg8
F0.05019572697279371
sg9
F0.93852962219540037
sg10
F0.009761797915744325
ss.